; Function Attrs: mustprogress nofree norecurse nosync nounwind sspstrong willreturn memory(readwrite, inaccessiblemem: none) uwtable
define dso_local void @set_sigmask(ptr noundef readonly captures(none) %set) local_unnamed_addr #6 {
entry:
  %0 = tail call align 8 ptr @llvm.threadlocal.address.p0(ptr align 8 @thread_cpu)
  %1 = load ptr, ptr %0, align 8
  %opaque = getelementptr inbounds nuw i8, ptr %1, i64 624
  %2 = load ptr, ptr %opaque, align 16
  %signal_mask = getelementptr inbounds nuw i8, ptr %2, i64 8904
  tail call void @llvm.memcpy.p0.p0.i64(ptr noundef nonnull align 8 dereferenceable(128) %signal_mask, ptr noundef nonnull align 8 dereferenceable(128) %set, i64 128, i1 false)
  ret void
}